target datalayout = "e-m:e-p270:32:32-p271:32:32-p272:64:64-i64:64-i128:128-f80:128-n8:16:32:64-S128"
target triple = "x86_64-pc-linux-gnu"

%"class.google::protobuf::TextFormat::Parser" = type <{ ptr, ptr, ptr, i8, i8, i8, i8, i8, i8, i8, i8, i32, [4 x i8] }>

@_ZN6google8protobuf10TextFormat6ParserC1Ev = hidden unnamed_addr alias void (ptr), ptr @_ZN6google8protobuf10TextFormat6ParserC2Ev
@_ZN6google8protobuf10TextFormat6ParserD1Ev = hidden unnamed_addr alias void (ptr), ptr @_ZN6google8protobuf10TextFormat6ParserD2Ev

; Function Attrs: mustprogress uwtable
define hidden noundef zeroext i1 @_ZN6google8protobuf10TextFormat5ParseEPNS0_2io19ZeroCopyInputStreamEPNS0_7MessageE(ptr noundef %0, ptr noundef %1) #4 align 2 personality ptr @__gxx_personality_v0 {
  %3 = alloca ptr, align 8
  %4 = alloca ptr, align 8
  %5 = alloca %"class.google::protobuf::TextFormat::Parser", align 8
  %6 = alloca ptr, align 8
  %7 = alloca i32, align 4
  store ptr %0, ptr %3, align 8, !tbaa !128
  store ptr %1, ptr %4, align 8, !tbaa !3
  call void @llvm.lifetime.start.p0(i64 40, ptr %5) #3
  call void @_ZN6google8protobuf10TextFormat6ParserC1Ev(ptr noundef nonnull align 8 dereferenceable(36) %5)
  %8 = load ptr, ptr %3, align 8, !tbaa !128
  %9 = load ptr, ptr %4, align 8, !tbaa !3
  %10 = invoke noundef zeroext i1 @_ZN6google8protobuf10TextFormat6Parser5ParseEPNS0_2io19ZeroCopyInputStreamEPNS0_7MessageE(ptr noundef nonnull align 8 dereferenceable(36) %5, ptr noundef %8, ptr noundef %9)
          to label %11 unwind label %12

11:                                               ; preds = %2
  call void @_ZN6google8protobuf10TextFormat6ParserD1Ev(ptr noundef nonnull align 8 dereferenceable(36) %5) #3
  call void @llvm.lifetime.end.p0(i64 40, ptr %5) #3
  ret i1 %10

12:                                               ; preds = %2
  %13 = landingpad { ptr, i32 }
          cleanup
  %14 = extractvalue { ptr, i32 } %13, 0
  store ptr %14, ptr %6, align 8
  %15 = extractvalue { ptr, i32 } %13, 1
  store i32 %15, ptr %7, align 4
  call void @_ZN6google8protobuf10TextFormat6ParserD1Ev(ptr noundef nonnull align 8 dereferenceable(36) %5) #3
  call void @llvm.lifetime.end.p0(i64 40, ptr %5) #3
  br label %16

16:                                               ; preds = %12
  %17 = load ptr, ptr %6, align 8
  %18 = load i32, ptr %7, align 4
  %19 = insertvalue { ptr, i32 } poison, ptr %17, 0
  %20 = insertvalue { ptr, i32 } %19, i32 %18, 1
  resume { ptr, i32 } %20
}